; Function Attrs: mustprogress nounwind willreturn uwtable
define dso_local void @strbuf_release(ptr noundef captures(none) %0) local_unnamed_addr #5 {
  %2 = load i64, ptr %0, align 8, !tbaa !15
  %.not = icmp eq i64 %2, 0
  br i1 %.not, label %6, label %3

3:                                                ; preds = %1
  %4 = getelementptr inbounds nuw i8, ptr %0, i64 16
  %5 = load ptr, ptr %4, align 8, !tbaa !12
  tail call void @free(ptr noundef %5) #25
  tail call void @llvm.memcpy.p0.p0.i64(ptr noundef nonnull align 8 dereferenceable(24) %0, ptr noundef nonnull align 8 dereferenceable(24) @__const.strbuf_addftime.munged_fmt, i64 24, i1 false)
  br label %6

6:                                                ; preds = %3, %1
  ret void
}